; Function Attrs: nounwind sspstrong uwtable
define internal i64 @match_regexp(i64 noundef %0) #2 {
  %2 = inttoptr i64 %0 to ptr
  %3 = getelementptr inbounds nuw i8, ptr %2, i64 24
  %4 = load i64, ptr %3, align 8, !tbaa !31
  switch i64 %4, label %rb_obj_write.exit [
    i64 0, label %5
    i64 4, label %7
  ]

5:                                                ; preds = %1
  %6 = load i64, ptr @rb_eTypeError, align 8, !tbaa !18
  tail call void (i64, ptr, ...) @rb_raise(i64 noundef %6, ptr noundef nonnull @.str.76) #30
  unreachable

7:                                                ; preds = %1
  %8 = icmp eq i64 %0, 4
  br i1 %8, label %rb_reg_nth_match.exit, label %match_check.exit.i

match_check.exit.i:                               ; preds = %7
  %9 = getelementptr i8, ptr %2, i64 36
  %10 = load i32, ptr %9, align 4, !tbaa !40
  %.not.i9 = icmp sgt i32 %10, 0
  br i1 %.not.i9, label %11, label %rb_reg_nth_match.exit

11:                                               ; preds = %match_check.exit.i
  %12 = getelementptr i8, ptr %2, i64 40
  %13 = load ptr, ptr %12, align 8, !tbaa !92
  %14 = load i64, ptr %13, align 8, !tbaa !18
  %15 = icmp eq i64 %14, -1
  br i1 %15, label %rb_reg_nth_match.exit, label %16

16:                                               ; preds = %11
  %17 = getelementptr i8, ptr %2, i64 48
  %18 = load ptr, ptr %17, align 8, !tbaa !93
  %19 = load i64, ptr %18, align 8, !tbaa !18
  %20 = sub i64 %19, %14
  %21 = getelementptr inbounds nuw i8, ptr %2, i64 16
  %22 = load i64, ptr %21, align 8, !tbaa !94
  %23 = tail call i64 @rb_str_subseq(i64 noundef %22, i64 noundef %14, i64 noundef %20) #29
  br label %rb_reg_nth_match.exit

rb_reg_nth_match.exit:                            ; preds = %7, %match_check.exit.i, %11, %16
  %.0.i = phi i64 [ %23, %16 ], [ 4, %7 ], [ 4, %match_check.exit.i ], [ 4, %11 ]
  %24 = tail call i64 @rb_reg_quote(i64 noundef %.0.i)
  %25 = tail call i64 @rb_reg_regcomp(i64 noundef %24)
  store i64 %25, ptr %3, align 8, !tbaa !18
  %26 = icmp eq i64 %25, 0
  %27 = and i64 %25, 7
  %28 = icmp ne i64 %27, 0
  %29 = or i1 %26, %28
  br i1 %29, label %rb_obj_write.exit, label %30

30:                                               ; preds = %rb_reg_nth_match.exit
  tail call void @rb_gc_writebarrier(i64 noundef %0, i64 noundef %25) #29
  br label %rb_obj_write.exit

rb_obj_write.exit:                                ; preds = %1, %30, %rb_reg_nth_match.exit
  %.0 = phi i64 [ %25, %rb_reg_nth_match.exit ], [ %25, %30 ], [ %4, %1 ]
  ret i64 %.0
}